target datalayout = "e-m:e-p270:32:32-p271:32:32-p272:64:64-i64:64-i128:128-f80:128-n8:16:32:64-S128"
target triple = "x86_64-pc-linux-gnu"

%struct.SDL_WindowData = type { ptr, ptr, ptr, ptr, ptr, ptr, ptr, %union.anon, i32, i32, i32, i32, ptr, ptr, ptr, ptr, ptr, ptr, ptr, ptr, ptr, ptr, ptr, ptr, ptr, ptr, %struct.SDL_AtomicInt, ptr, i32, ptr, double, ptr, i32, i32, i32, i32, %struct.anon.3, %struct.anon.4, %struct.anon.5, %struct.anon.6, %struct.anon.7, %struct.anon.8, %struct.anon.9, i32, i32, i32, i64, i32, i32, i8, i8, i8, i8, i8, i8, i8, i8, i8, i8, i8, i8, i8, i8, i32, %struct.wl_list }
%union.anon = type { %struct.anon }
%struct.anon = type { ptr, %union.anon.0, i8 }
%union.anon.0 = type { %struct.anon.2 }
%struct.anon.2 = type { ptr, ptr }
%struct.SDL_AtomicInt = type { i32 }
%struct.anon.3 = type { double, double }
%struct.anon.4 = type { i32, i32, i32, i32 }
%struct.anon.5 = type { i32, i32, i32, i32 }
%struct.anon.6 = type { i32, i32 }
%struct.anon.7 = type { i32, i32 }
%struct.anon.8 = type { i32, i32 }
%struct.anon.9 = type { i32, i32, i8 }
%struct.wl_list = type { ptr, ptr }
%struct.SDL_Window = type { i32, ptr, ptr, i32, i32, i32, i32, i32, i32, i32, i32, float, float, i32, i32, i64, i64, float, i8, i8, i32, i32, %struct.SDL_Rect, %struct.SDL_Rect, %struct.SDL_Rect, i8, i8, i8, %struct.SDL_DisplayMode, %struct.SDL_DisplayMode, %struct.SDL_HDROutputProperties, float, ptr, i8, i8, i8, i8, i8, i8, i8, i8, i8, i32, i32, i32, i32, %struct.SDL_Rect, i32, i8, %struct.SDL_Rect, i32, %struct.SDL_Rect, ptr, ptr, i32, float, i32, i32, ptr, ptr, ptr, ptr, ptr, ptr, ptr, ptr, ptr }
%struct.SDL_DisplayMode = type { i32, i32, i32, i32, float, float, i32, i32, ptr }
%struct.SDL_HDROutputProperties = type { float, float }
%struct.SDL_Rect = type { i32, i32, i32, i32 }
%struct.SDL_VideoData = type { i8, ptr, i32, ptr, ptr, ptr, ptr, i32, %struct.anon.12, ptr, ptr, ptr, ptr, ptr, ptr, ptr, ptr, ptr, ptr, ptr, ptr, ptr, ptr, ptr, ptr, ptr, ptr, ptr, ptr, ptr, ptr, %struct.wl_list, ptr, ptr, ptr, ptr, i32, i32, i8, i8 }
%struct.anon.12 = type { ptr }

@WAYLAND_wl_display_roundtrip = external global ptr, align 8

; Function Attrs: nounwind uwtable
define internal double @GetWindowScale(ptr noundef %0) #0 {
  %2 = alloca ptr, align 8
  store ptr %0, ptr %2, align 8
  %3 = load ptr, ptr %2, align 8
  %4 = getelementptr inbounds nuw %struct.SDL_Window, ptr %3, i32 0, i32 15
  %5 = load i64, ptr %4, align 8
  %6 = and i64 %5, 8192
  %7 = icmp ne i64 %6, 0
  br i1 %7, label %15, label %8

8:                                                ; preds = %1
  %9 = load ptr, ptr %2, align 8
  %10 = getelementptr inbounds nuw %struct.SDL_Window, ptr %9, i32 0, i32 59
  %11 = load ptr, ptr %10, align 8
  %12 = getelementptr inbounds nuw %struct.SDL_WindowData, ptr %11, i32 0, i32 60
  %13 = load i8, ptr %12, align 1, !range !5, !noundef !6
  %14 = trunc i8 %13 to i1
  br i1 %14, label %15, label %21

15:                                               ; preds = %8, %1
  %16 = load ptr, ptr %2, align 8
  %17 = getelementptr inbounds nuw %struct.SDL_Window, ptr %16, i32 0, i32 59
  %18 = load ptr, ptr %17, align 8
  %19 = getelementptr inbounds nuw %struct.SDL_WindowData, ptr %18, i32 0, i32 30
  %20 = load double, ptr %19, align 8
  br label %22

21:                                               ; preds = %8
  br label %22

22:                                               ; preds = %21, %15
  %23 = phi double [ %20, %15 ], [ 1.000000e+00, %21 ]
  ret double %23
}

; Function Attrs: nounwind uwtable
define internal void @CommitLibdecorFrame(ptr noundef %0) #0 {
  %2 = alloca ptr, align 8
  store ptr %0, ptr %2, align 8
  ret void
}

; Function Attrs: nounwind uwtable
define internal i32 @PixelToPoint(ptr noundef %0, i32 noundef %1) #0 {
  %3 = alloca ptr, align 8
  %4 = alloca i32, align 4
  store ptr %0, ptr %3, align 8
  store i32 %1, ptr %4, align 4
  %5 = load i32, ptr %4, align 4
  %6 = icmp ne i32 %5, 0
  br i1 %6, label %7, label %27

7:                                                ; preds = %2
  %8 = load i32, ptr %4, align 4
  %9 = sitofp i32 %8 to double
  %10 = load ptr, ptr %3, align 8
  %11 = call double @GetWindowScale(ptr noundef %10)
  %12 = fdiv double %9, %11
  %13 = call i64 @SDL_lround_REAL(double noundef %12)
  %14 = trunc i64 %13 to i32
  %15 = icmp sgt i32 %14, 1
  br i1 %15, label %16, label %24

16:                                               ; preds = %7
  %17 = load i32, ptr %4, align 4
  %18 = sitofp i32 %17 to double
  %19 = load ptr, ptr %3, align 8
  %20 = call double @GetWindowScale(ptr noundef %19)
  %21 = fdiv double %18, %20
  %22 = call i64 @SDL_lround_REAL(double noundef %21)
  %23 = trunc i64 %22 to i32
  br label %25

24:                                               ; preds = %7
  br label %25

25:                                               ; preds = %24, %16
  %26 = phi i32 [ %23, %16 ], [ 1, %24 ]
  br label %28

27:                                               ; preds = %2
  br label %28

28:                                               ; preds = %27, %25
  %29 = phi i32 [ %26, %25 ], [ 0, %27 ]
  ret i32 %29
}

; Function Attrs: nounwind uwtable
define internal void @FlushPendingEvents(ptr noundef %0) #0 {
  %2 = alloca ptr, align 8
  %3 = alloca i8, align 1
  %4 = alloca i8, align 1
  store ptr %0, ptr %2, align 8
  call void @llvm.lifetime.start.p0(i64 1, ptr %3) #10
  %5 = load ptr, ptr %2, align 8
  %6 = getelementptr inbounds nuw %struct.SDL_Window, ptr %5, i32 0, i32 36
  %7 = load i8, ptr %6, align 1, !range !5, !noundef !6
  %8 = trunc i8 %7 to i1
  %9 = zext i1 %8 to i8
  store i8 %9, ptr %3, align 1
  call void @llvm.lifetime.start.p0(i64 1, ptr %4) #10
  %10 = load ptr, ptr %2, align 8
  %11 = getelementptr inbounds nuw %struct.SDL_Window, ptr %10, i32 0, i32 37
  %12 = load i8, ptr %11, align 4, !range !5, !noundef !6
  %13 = trunc i8 %12 to i1
  %14 = zext i1 %13 to i8
  store i8 %14, ptr %4, align 1
  br label %15

15:                                               ; preds = %31, %1
  %16 = load ptr, ptr %2, align 8
  %17 = getelementptr inbounds nuw %struct.SDL_Window, ptr %16, i32 0, i32 59
  %18 = load ptr, ptr %17, align 8
  %19 = getelementptr inbounds nuw %struct.SDL_WindowData, ptr %18, i32 0, i32 44
  %20 = load i32, ptr %19, align 8
  %21 = icmp ne i32 %20, 0
  br i1 %21, label %29, label %22

22:                                               ; preds = %15
  %23 = load ptr, ptr %2, align 8
  %24 = getelementptr inbounds nuw %struct.SDL_Window, ptr %23, i32 0, i32 59
  %25 = load ptr, ptr %24, align 8
  %26 = getelementptr inbounds nuw %struct.SDL_WindowData, ptr %25, i32 0, i32 45
  %27 = load i32, ptr %26, align 4
  %28 = icmp ne i32 %27, 0
  br label %29

29:                                               ; preds = %22, %15
  %30 = phi i1 [ true, %15 ], [ %28, %22 ]
  br i1 %30, label %31, label %41

31:                                               ; preds = %29
  %32 = load ptr, ptr @WAYLAND_wl_display_roundtrip, align 8
  %33 = load ptr, ptr %2, align 8
  %34 = getelementptr inbounds nuw %struct.SDL_Window, ptr %33, i32 0, i32 59
  %35 = load ptr, ptr %34, align 8
  %36 = getelementptr inbounds nuw %struct.SDL_WindowData, ptr %35, i32 0, i32 1
  %37 = load ptr, ptr %36, align 8
  %38 = getelementptr inbounds nuw %struct.SDL_VideoData, ptr %37, i32 0, i32 1
  %39 = load ptr, ptr %38, align 8
  %40 = call i32 %32(ptr noundef %39)
  br label %15, !llvm.loop !11

41:                                               ; preds = %29
  %42 = load i8, ptr %3, align 1, !range !5, !noundef !6
  %43 = trunc i8 %42 to i1
  %44 = load ptr, ptr %2, align 8
  %45 = getelementptr inbounds nuw %struct.SDL_Window, ptr %44, i32 0, i32 36
  %46 = zext i1 %43 to i8
  store i8 %46, ptr %45, align 1
  %47 = load i8, ptr %4, align 1, !range !5, !noundef !6
  %48 = trunc i8 %47 to i1
  %49 = load ptr, ptr %2, align 8
  %50 = getelementptr inbounds nuw %struct.SDL_Window, ptr %49, i32 0, i32 37
  %51 = zext i1 %48 to i8
  store i8 %51, ptr %50, align 4
  call void @llvm.lifetime.end.p0(i64 1, ptr %4) #10
  call void @llvm.lifetime.end.p0(i64 1, ptr %3) #10
  ret void
}

; Function Attrs: nounwind uwtable
define hidden void @Wayland_SetWindowSize(ptr noundef %0, ptr noundef %1) #0 {
  %3 = alloca ptr, align 8
  %4 = alloca ptr, align 8
  %5 = alloca ptr, align 8
  store ptr %0, ptr %3, align 8
  store ptr %1, ptr %4, align 8
  call void @llvm.lifetime.start.p0(i64 8, ptr %5) #10
  %6 = load ptr, ptr %4, align 8
  %7 = getelementptr inbounds nuw %struct.SDL_Window, ptr %6, i32 0, i32 59
  %8 = load ptr, ptr %7, align 8
  store ptr %8, ptr %5, align 8
  %9 = load ptr, ptr %4, align 8
  call void @FlushPendingEvents(ptr noundef %9)
  %10 = load ptr, ptr %4, align 8
  %11 = getelementptr inbounds nuw %struct.SDL_Window, ptr %10, i32 0, i32 15
  %12 = load i64, ptr %11, align 8
  %13 = and i64 %12, 129
  %14 = icmp ne i64 %13, 0
  br i1 %14, label %15, label %20

15:                                               ; preds = %2
  %16 = load ptr, ptr %5, align 8
  %17 = getelementptr inbounds nuw %struct.SDL_WindowData, ptr %16, i32 0, i32 8
  %18 = load i32, ptr %17, align 8
  %19 = icmp eq i32 %18, 4
  br i1 %19, label %20, label %76

20:                                               ; preds = %15, %2
  %21 = load ptr, ptr %5, align 8
  %22 = getelementptr inbounds nuw %struct.SDL_WindowData, ptr %21, i32 0, i32 60
  %23 = load i8, ptr %22, align 1, !range !5, !noundef !6
  %24 = trunc i8 %23 to i1
  br i1 %24, label %40, label %25

25:                                               ; preds = %20
  %26 = load ptr, ptr %4, align 8
  %27 = getelementptr inbounds nuw %struct.SDL_Window, ptr %26, i32 0, i32 24
  %28 = getelementptr inbounds nuw %struct.SDL_Rect, ptr %27, i32 0, i32 2
  %29 = load i32, ptr %28, align 8
  %30 = load ptr, ptr %5, align 8
  %31 = getelementptr inbounds nuw %struct.SDL_WindowData, ptr %30, i32 0, i32 37
  %32 = getelementptr inbounds nuw %struct.anon.4, ptr %31, i32 0, i32 0
  store i32 %29, ptr %32, align 8
  %33 = load ptr, ptr %4, align 8
  %34 = getelementptr inbounds nuw %struct.SDL_Window, ptr %33, i32 0, i32 24
  %35 = getelementptr inbounds nuw %struct.SDL_Rect, ptr %34, i32 0, i32 3
  %36 = load i32, ptr %35, align 4
  %37 = load ptr, ptr %5, align 8
  %38 = getelementptr inbounds nuw %struct.SDL_WindowData, ptr %37, i32 0, i32 37
  %39 = getelementptr inbounds nuw %struct.anon.4, ptr %38, i32 0, i32 1
  store i32 %36, ptr %39, align 4
  br label %73

40:                                               ; preds = %20
  %41 = load ptr, ptr %4, align 8
  %42 = load ptr, ptr %4, align 8
  %43 = getelementptr inbounds nuw %struct.SDL_Window, ptr %42, i32 0, i32 24
  %44 = getelementptr inbounds nuw %struct.SDL_Rect, ptr %43, i32 0, i32 2
  %45 = load i32, ptr %44, align 8
  %46 = call i32 @PixelToPoint(ptr noundef %41, i32 noundef %45)
  %47 = load ptr, ptr %5, align 8
  %48 = getelementptr inbounds nuw %struct.SDL_WindowData, ptr %47, i32 0, i32 37
  %49 = getelementptr inbounds nuw %struct.anon.4, ptr %48, i32 0, i32 0
  store i32 %46, ptr %49, align 8
  %50 = load ptr, ptr %4, align 8
  %51 = load ptr, ptr %4, align 8
  %52 = getelementptr inbounds nuw %struct.SDL_Window, ptr %51, i32 0, i32 24
  %53 = getelementptr inbounds nuw %struct.SDL_Rect, ptr %52, i32 0, i32 3
  %54 = load i32, ptr %53, align 4
  %55 = call i32 @PixelToPoint(ptr noundef %50, i32 noundef %54)
  %56 = load ptr, ptr %5, align 8
  %57 = getelementptr inbounds nuw %struct.SDL_WindowData, ptr %56, i32 0, i32 37
  %58 = getelementptr inbounds nuw %struct.anon.4, ptr %57, i32 0, i32 1
  store i32 %55, ptr %58, align 4
  %59 = load ptr, ptr %4, align 8
  %60 = getelementptr inbounds nuw %struct.SDL_Window, ptr %59, i32 0, i32 24
  %61 = getelementptr inbounds nuw %struct.SDL_Rect, ptr %60, i32 0, i32 2
  %62 = load i32, ptr %61, align 8
  %63 = load ptr, ptr %5, align 8
  %64 = getelementptr inbounds nuw %struct.SDL_WindowData, ptr %63, i32 0, i32 37
  %65 = getelementptr inbounds nuw %struct.anon.4, ptr %64, i32 0, i32 2
  store i32 %62, ptr %65, align 8
  %66 = load ptr, ptr %4, align 8
  %67 = getelementptr inbounds nuw %struct.SDL_Window, ptr %66, i32 0, i32 24
  %68 = getelementptr inbounds nuw %struct.SDL_Rect, ptr %67, i32 0, i32 3
  %69 = load i32, ptr %68, align 4
  %70 = load ptr, ptr %5, align 8
  %71 = getelementptr inbounds nuw %struct.SDL_WindowData, ptr %70, i32 0, i32 37
  %72 = getelementptr inbounds nuw %struct.anon.4, ptr %71, i32 0, i32 3
  store i32 %69, ptr %72, align 4
  br label %73

73:                                               ; preds = %40, %25
  %74 = load ptr, ptr %4, align 8
  %75 = call zeroext i1 @ConfigureWindowGeometry(ptr noundef %74)
  br label %79

76:                                               ; preds = %15
  %77 = load ptr, ptr %4, align 8
  %78 = getelementptr inbounds nuw %struct.SDL_Window, ptr %77, i32 0, i32 37
  store i8 0, ptr %78, align 4
  br label %79

79:                                               ; preds = %76, %73
  %80 = load ptr, ptr %4, align 8
  call void @CommitLibdecorFrame(ptr noundef %80)
  call void @llvm.lifetime.end.p0(i64 8, ptr %5) #10
  ret void
}