; Function Attrs: nounwind uwtable
define hidden void @Wayland_SetWindowSize(ptr noundef readnone captures(none) %0, ptr noundef %1) local_unnamed_addr #0 {
  %3 = getelementptr inbounds nuw i8, ptr %1, i64 392
  %4 = load ptr, ptr %3, align 8
  %5 = getelementptr inbounds nuw i8, ptr %1, i64 267
  %6 = load i8, ptr %5, align 1, !range !5, !noundef !6
  %7 = getelementptr inbounds nuw i8, ptr %1, i64 268
  %8 = load i8, ptr %7, align 4, !range !5, !noundef !6
  br label %9

9:                                                ; preds = %.critedge.i, %2
  %10 = phi ptr [ %.pre, %.critedge.i ], [ %4, %2 ]
  %11 = getelementptr inbounds nuw i8, ptr %10, i64 368
  %12 = load i32, ptr %11, align 8
  %.not.i = icmp eq i32 %12, 0
  br i1 %.not.i, label %13, label %.critedge.i

13:                                               ; preds = %9
  %14 = getelementptr inbounds nuw i8, ptr %10, i64 372
  %15 = load i32, ptr %14, align 4
  %.not8.i = icmp eq i32 %15, 0
  br i1 %.not8.i, label %FlushPendingEvents.exit, label %.critedge.i

.critedge.i:                                      ; preds = %13, %9
  %16 = load ptr, ptr @WAYLAND_wl_display_roundtrip, align 8
  %17 = getelementptr inbounds nuw i8, ptr %10, i64 8
  %18 = load ptr, ptr %17, align 8
  %19 = getelementptr inbounds nuw i8, ptr %18, i64 8
  %20 = load ptr, ptr %19, align 8
  %21 = tail call i32 %16(ptr noundef %20) #15
  %.pre = load ptr, ptr %3, align 8
  br label %9, !llvm.loop !11

FlushPendingEvents.exit:                          ; preds = %13
  store i8 %6, ptr %5, align 1
  store i8 %8, ptr %7, align 4
  %22 = getelementptr inbounds nuw i8, ptr %1, i64 72
  %23 = load i64, ptr %22, align 8
  %24 = and i64 %23, 129
  %.not = icmp eq i64 %24, 0
  br i1 %.not, label %29, label %25

25:                                               ; preds = %FlushPendingEvents.exit
  %26 = getelementptr inbounds nuw i8, ptr %4, i64 88
  %27 = load i32, ptr %26, align 8
  %28 = icmp eq i32 %27, 4
  br i1 %28, label %29, label %108

29:                                               ; preds = %25, %FlushPendingEvents.exit
  %30 = getelementptr inbounds nuw i8, ptr %4, i64 403
  %31 = load i8, ptr %30, align 1, !range !5, !noundef !6
  %32 = trunc nuw i8 %31 to i1
  %33 = getelementptr inbounds nuw i8, ptr %1, i64 144
  %34 = load i32, ptr %33, align 8
  br i1 %32, label %38, label %35

35:                                               ; preds = %29
  %36 = getelementptr inbounds nuw i8, ptr %4, i64 296
  store i32 %34, ptr %36, align 8
  %37 = getelementptr inbounds nuw i8, ptr %1, i64 148
  br label %105

38:                                               ; preds = %29
  %.not.i22 = icmp eq i32 %34, 0
  br i1 %.not.i22, label %PixelToPoint.exit, label %39

39:                                               ; preds = %38
  %40 = sitofp i32 %34 to double
  %41 = and i64 %23, 8192
  %.not.i.i = icmp eq i64 %41, 0
  br i1 %.not.i.i, label %42, label %._crit_edge.i.i

42:                                               ; preds = %39
  %43 = getelementptr inbounds nuw i8, ptr %10, i64 403
  %44 = load i8, ptr %43, align 1, !range !5, !noundef !6
  %45 = trunc nuw i8 %44 to i1
  br i1 %45, label %._crit_edge.i.i, label %GetWindowScale.exit.i

._crit_edge.i.i:                                  ; preds = %42, %39
  %46 = getelementptr inbounds nuw i8, ptr %10, i64 248
  %47 = load double, ptr %46, align 8
  br label %GetWindowScale.exit.i

GetWindowScale.exit.i:                            ; preds = %._crit_edge.i.i, %42
  %48 = phi double [ %47, %._crit_edge.i.i ], [ 1.000000e+00, %42 ]
  %49 = fdiv double %40, %48
  %50 = tail call i64 @SDL_lround_REAL(double noundef %49) #15
  %51 = trunc i64 %50 to i32
  %52 = icmp sgt i32 %51, 1
  br i1 %52, label %53, label %PixelToPoint.exit

53:                                               ; preds = %GetWindowScale.exit.i
  %54 = load i64, ptr %22, align 8
  %55 = and i64 %54, 8192
  %.not.i4.i = icmp eq i64 %55, 0
  %56 = load ptr, ptr %3, align 8
  br i1 %.not.i4.i, label %57, label %._crit_edge.i5.i

57:                                               ; preds = %53
  %58 = getelementptr inbounds nuw i8, ptr %56, i64 403
  %59 = load i8, ptr %58, align 1, !range !5, !noundef !6
  %60 = trunc nuw i8 %59 to i1
  br i1 %60, label %._crit_edge.i5.i, label %GetWindowScale.exit6.i

._crit_edge.i5.i:                                 ; preds = %57, %53
  %61 = getelementptr inbounds nuw i8, ptr %56, i64 248
  %62 = load double, ptr %61, align 8
  br label %GetWindowScale.exit6.i

GetWindowScale.exit6.i:                           ; preds = %._crit_edge.i5.i, %57
  %63 = phi double [ %62, %._crit_edge.i5.i ], [ 1.000000e+00, %57 ]
  %64 = fdiv double %40, %63
  %65 = tail call i64 @SDL_lround_REAL(double noundef %64) #15
  %66 = trunc i64 %65 to i32
  br label %PixelToPoint.exit

PixelToPoint.exit:                                ; preds = %38, %GetWindowScale.exit.i, %GetWindowScale.exit6.i
  %67 = phi i32 [ %66, %GetWindowScale.exit6.i ], [ 1, %GetWindowScale.exit.i ], [ 0, %38 ]
  %68 = getelementptr inbounds nuw i8, ptr %4, i64 296
  store i32 %67, ptr %68, align 8
  %69 = getelementptr inbounds nuw i8, ptr %1, i64 148
  %70 = load i32, ptr %69, align 4
  %.not.i23 = icmp eq i32 %70, 0
  br i1 %.not.i23, label %PixelToPoint.exit30, label %71

71:                                               ; preds = %PixelToPoint.exit
  %72 = sitofp i32 %70 to double
  %73 = load i64, ptr %22, align 8
  %74 = and i64 %73, 8192
  %.not.i.i24 = icmp eq i64 %74, 0
  %75 = load ptr, ptr %3, align 8
  br i1 %.not.i.i24, label %76, label %._crit_edge.i.i25

76:                                               ; preds = %71
  %77 = getelementptr inbounds nuw i8, ptr %75, i64 403
  %78 = load i8, ptr %77, align 1, !range !5, !noundef !6
  %79 = trunc nuw i8 %78 to i1
  br i1 %79, label %._crit_edge.i.i25, label %GetWindowScale.exit.i26

._crit_edge.i.i25:                                ; preds = %76, %71
  %80 = getelementptr inbounds nuw i8, ptr %75, i64 248
  %81 = load double, ptr %80, align 8
  br label %GetWindowScale.exit.i26

GetWindowScale.exit.i26:                          ; preds = %._crit_edge.i.i25, %76
  %82 = phi double [ %81, %._crit_edge.i.i25 ], [ 1.000000e+00, %76 ]
  %83 = fdiv double %72, %82
  %84 = tail call i64 @SDL_lround_REAL(double noundef %83) #15
  %85 = trunc i64 %84 to i32
  %86 = icmp sgt i32 %85, 1
  br i1 %86, label %87, label %PixelToPoint.exit30

87:                                               ; preds = %GetWindowScale.exit.i26
  %88 = load i64, ptr %22, align 8
  %89 = and i64 %88, 8192
  %.not.i4.i27 = icmp eq i64 %89, 0
  %90 = load ptr, ptr %3, align 8
  br i1 %.not.i4.i27, label %91, label %._crit_edge.i5.i28

91:                                               ; preds = %87
  %92 = getelementptr inbounds nuw i8, ptr %90, i64 403
  %93 = load i8, ptr %92, align 1, !range !5, !noundef !6
  %94 = trunc nuw i8 %93 to i1
  br i1 %94, label %._crit_edge.i5.i28, label %GetWindowScale.exit6.i29

._crit_edge.i5.i28:                               ; preds = %91, %87
  %95 = getelementptr inbounds nuw i8, ptr %90, i64 248
  %96 = load double, ptr %95, align 8
  br label %GetWindowScale.exit6.i29

GetWindowScale.exit6.i29:                         ; preds = %._crit_edge.i5.i28, %91
  %97 = phi double [ %96, %._crit_edge.i5.i28 ], [ 1.000000e+00, %91 ]
  %98 = fdiv double %72, %97
  %99 = tail call i64 @SDL_lround_REAL(double noundef %98) #15
  %100 = trunc i64 %99 to i32
  br label %PixelToPoint.exit30

PixelToPoint.exit30:                              ; preds = %PixelToPoint.exit, %GetWindowScale.exit.i26, %GetWindowScale.exit6.i29
  %101 = phi i32 [ %100, %GetWindowScale.exit6.i29 ], [ 1, %GetWindowScale.exit.i26 ], [ 0, %PixelToPoint.exit ]
  %102 = getelementptr inbounds nuw i8, ptr %4, i64 300
  store i32 %101, ptr %102, align 4
  %103 = load i32, ptr %33, align 8
  %104 = getelementptr inbounds nuw i8, ptr %4, i64 304
  store i32 %103, ptr %104, align 8
  br label %105

105:                                              ; preds = %PixelToPoint.exit30, %35
  %.sink32 = phi i64 [ 308, %PixelToPoint.exit30 ], [ 300, %35 ]
  %.sink.in = phi ptr [ %69, %PixelToPoint.exit30 ], [ %37, %35 ]
  %.sink = load i32, ptr %.sink.in, align 4
  %106 = getelementptr inbounds nuw i8, ptr %4, i64 %.sink32
  store i32 %.sink, ptr %106, align 4
  %107 = tail call fastcc zeroext i1 @ConfigureWindowGeometry(ptr noundef nonnull %1)
  br label %109

108:                                              ; preds = %25
  store i8 0, ptr %7, align 4
  br label %109

109:                                              ; preds = %108, %105
  ret void
}